; Function Attrs: nounwind uwtable
define zeroext i1 @duckdb_je_prof_gdump_set(ptr noundef %0, i1 noundef zeroext %1) local_unnamed_addr #4 {
  %3 = tail call i32 @pthread_mutex_trylock(ptr noundef nonnull getelementptr inbounds nuw (i8, ptr @prof_gdump_mtx, i64 72)) #10
  %.not.i = icmp eq i32 %3, 0
  br i1 %.not.i, label %4, label %atomic_store_b.exit.i

atomic_store_b.exit.i:                            ; preds = %2
  tail call void @duckdb_je_malloc_mutex_lock_slow(ptr noundef nonnull @prof_gdump_mtx) #10
  store atomic i8 1, ptr getelementptr inbounds nuw (i8, ptr @prof_gdump_mtx, i64 64) monotonic, align 8
  br label %4

4:                                                ; preds = %atomic_store_b.exit.i, %2
  %5 = load i64, ptr getelementptr inbounds nuw (i8, ptr @prof_gdump_mtx, i64 56), align 8, !tbaa !6
  %6 = add i64 %5, 1
  store i64 %6, ptr getelementptr inbounds nuw (i8, ptr @prof_gdump_mtx, i64 56), align 8, !tbaa !6
  %7 = load ptr, ptr getelementptr inbounds nuw (i8, ptr @prof_gdump_mtx, i64 48), align 8, !tbaa !14
  %.not.i.i = icmp eq ptr %7, %0
  br i1 %.not.i.i, label %malloc_mutex_lock.exit, label %8

8:                                                ; preds = %4
  store ptr %0, ptr getelementptr inbounds nuw (i8, ptr @prof_gdump_mtx, i64 48), align 8, !tbaa !14
  %9 = load i64, ptr getelementptr inbounds nuw (i8, ptr @prof_gdump_mtx, i64 40), align 8, !tbaa !15
  %10 = add i64 %9, 1
  store i64 %10, ptr getelementptr inbounds nuw (i8, ptr @prof_gdump_mtx, i64 40), align 8, !tbaa !15
  br label %malloc_mutex_lock.exit

malloc_mutex_lock.exit:                           ; preds = %4, %8
  %11 = zext i1 %1 to i8
  %12 = load i8, ptr @duckdb_je_prof_gdump_val, align 1, !tbaa !17, !range !19, !noundef !20
  %13 = trunc nuw i8 %12 to i1
  store i8 %11, ptr @duckdb_je_prof_gdump_val, align 1, !tbaa !17
  store atomic i8 0, ptr getelementptr inbounds nuw (i8, ptr @prof_gdump_mtx, i64 64) monotonic, align 8
  %14 = tail call i32 @pthread_mutex_unlock(ptr noundef nonnull getelementptr inbounds nuw (i8, ptr @prof_gdump_mtx, i64 72)) #10
  ret i1 %13
}